target datalayout = "e-m:e-p270:32:32-p271:32:32-p272:64:64-i64:64-i128:128-f80:128-n8:16:32:64-S128"
target triple = "x86_64-pc-linux-gnu"

%struct.H5P_genclass_t = type { ptr, ptr, i32, i64, i32, i32, i32, i8, i32, ptr, ptr, ptr, ptr, ptr, ptr, ptr }

@H5P_init_g = external global i8, align 1
@H5_libterm_g = external global i8, align 1
@H5_H5P_genclass_t_reg_free_list = internal global { i8, [3 x i8], i32, i32, [4 x i8], ptr, i64, ptr } { i8 0, [3 x i8] zeroinitializer, i32 0, i32 0, [4 x i8] zeroinitializer, ptr @.str.88, i64 112, ptr null }, align 8

; Function Attrs: nounwind uwtable
define i32 @H5P__access_class(ptr noundef %0, i32 noundef %1) #0 {
  %3 = alloca ptr, align 8
  %4 = alloca i32, align 4
  %5 = alloca ptr, align 8
  %6 = alloca i8, align 1
  store ptr %0, ptr %3, align 8, !tbaa !22
  store i32 %1, ptr %4, align 4, !tbaa !3
  %7 = load i8, ptr @H5P_init_g, align 1, !tbaa !7, !range !9, !noundef !10
  %8 = trunc i8 %7 to i1
  br i1 %8, label %13, label %9

9:                                                ; preds = %2
  %10 = load i8, ptr @H5_libterm_g, align 1, !tbaa !7, !range !9, !noundef !10
  %11 = trunc i8 %10 to i1
  %12 = xor i1 %11, true
  br label %13

13:                                               ; preds = %9, %2
  %14 = phi i1 [ true, %2 ], [ %12, %9 ]
  %15 = xor i1 %14, true
  %16 = xor i1 %15, true
  %17 = zext i1 %16 to i32
  %18 = sext i32 %17 to i64
  %19 = call i64 @llvm.expect.i64(i64 %18, i64 1)
  %20 = icmp ne i64 %19, 0
  br i1 %20, label %21, label %113

21:                                               ; preds = %13
  %22 = load i32, ptr %4, align 4, !tbaa !3
  switch i32 %22, label %70 [
    i32 0, label %23
    i32 1, label %28
    i32 2, label %33
    i32 3, label %38
    i32 4, label %43
    i32 5, label %56
    i32 -1, label %69
    i32 6, label %69
  ]

23:                                               ; preds = %21
  %24 = load ptr, ptr %3, align 8, !tbaa !22
  %25 = getelementptr inbounds nuw %struct.H5P_genclass_t, ptr %24, i32 0, i32 5
  %26 = load i32, ptr %25, align 4, !tbaa !48
  %27 = add i32 %26, 1
  store i32 %27, ptr %25, align 4, !tbaa !48
  br label %71

28:                                               ; preds = %21
  %29 = load ptr, ptr %3, align 8, !tbaa !22
  %30 = getelementptr inbounds nuw %struct.H5P_genclass_t, ptr %29, i32 0, i32 5
  %31 = load i32, ptr %30, align 4, !tbaa !48
  %32 = add i32 %31, -1
  store i32 %32, ptr %30, align 4, !tbaa !48
  br label %71

33:                                               ; preds = %21
  %34 = load ptr, ptr %3, align 8, !tbaa !22
  %35 = getelementptr inbounds nuw %struct.H5P_genclass_t, ptr %34, i32 0, i32 4
  %36 = load i32, ptr %35, align 8, !tbaa !47
  %37 = add i32 %36, 1
  store i32 %37, ptr %35, align 8, !tbaa !47
  br label %71

38:                                               ; preds = %21
  %39 = load ptr, ptr %3, align 8, !tbaa !22
  %40 = getelementptr inbounds nuw %struct.H5P_genclass_t, ptr %39, i32 0, i32 4
  %41 = load i32, ptr %40, align 8, !tbaa !47
  %42 = add i32 %41, -1
  store i32 %42, ptr %40, align 8, !tbaa !47
  br label %71

43:                                               ; preds = %21
  %44 = load ptr, ptr %3, align 8, !tbaa !22
  %45 = getelementptr inbounds nuw %struct.H5P_genclass_t, ptr %44, i32 0, i32 7
  %46 = load i8, ptr %45, align 4, !tbaa !50, !range !9, !noundef !10
  %47 = trunc i8 %46 to i1
  br i1 %47, label %48, label %51

48:                                               ; preds = %43
  %49 = load ptr, ptr %3, align 8, !tbaa !22
  %50 = getelementptr inbounds nuw %struct.H5P_genclass_t, ptr %49, i32 0, i32 7
  store i8 0, ptr %50, align 4, !tbaa !50
  br label %51

51:                                               ; preds = %48, %43
  %52 = load ptr, ptr %3, align 8, !tbaa !22
  %53 = getelementptr inbounds nuw %struct.H5P_genclass_t, ptr %52, i32 0, i32 6
  %54 = load i32, ptr %53, align 8, !tbaa !49
  %55 = add i32 %54, 1
  store i32 %55, ptr %53, align 8, !tbaa !49
  br label %71

56:                                               ; preds = %21
  %57 = load ptr, ptr %3, align 8, !tbaa !22
  %58 = getelementptr inbounds nuw %struct.H5P_genclass_t, ptr %57, i32 0, i32 6
  %59 = load i32, ptr %58, align 8, !tbaa !49
  %60 = add i32 %59, -1
  store i32 %60, ptr %58, align 8, !tbaa !49
  %61 = load ptr, ptr %3, align 8, !tbaa !22
  %62 = getelementptr inbounds nuw %struct.H5P_genclass_t, ptr %61, i32 0, i32 6
  %63 = load i32, ptr %62, align 8, !tbaa !49
  %64 = icmp eq i32 %63, 0
  br i1 %64, label %65, label %68

65:                                               ; preds = %56
  %66 = load ptr, ptr %3, align 8, !tbaa !22
  %67 = getelementptr inbounds nuw %struct.H5P_genclass_t, ptr %66, i32 0, i32 7
  store i8 1, ptr %67, align 4, !tbaa !50
  br label %68

68:                                               ; preds = %65, %56
  br label %71

69:                                               ; preds = %21, %21
  br label %70

70:                                               ; preds = %21, %69
  br label %71

71:                                               ; preds = %70, %68, %51, %38, %33, %28, %23
  %72 = load ptr, ptr %3, align 8, !tbaa !22
  %73 = getelementptr inbounds nuw %struct.H5P_genclass_t, ptr %72, i32 0, i32 7
  %74 = load i8, ptr %73, align 4, !tbaa !50, !range !9, !noundef !10
  %75 = trunc i8 %74 to i1
  br i1 %75, label %76, label %112

76:                                               ; preds = %71
  %77 = load ptr, ptr %3, align 8, !tbaa !22
  %78 = getelementptr inbounds nuw %struct.H5P_genclass_t, ptr %77, i32 0, i32 4
  %79 = load i32, ptr %78, align 8, !tbaa !47
  %80 = icmp eq i32 %79, 0
  br i1 %80, label %81, label %112

81:                                               ; preds = %76
  %82 = load ptr, ptr %3, align 8, !tbaa !22
  %83 = getelementptr inbounds nuw %struct.H5P_genclass_t, ptr %82, i32 0, i32 5
  %84 = load i32, ptr %83, align 4, !tbaa !48
  %85 = icmp eq i32 %84, 0
  br i1 %85, label %86, label %112

86:                                               ; preds = %81
  call void @llvm.lifetime.start.p0(i64 8, ptr %5) #8
  %87 = load ptr, ptr %3, align 8, !tbaa !22
  %88 = getelementptr inbounds nuw %struct.H5P_genclass_t, ptr %87, i32 0, i32 0
  %89 = load ptr, ptr %88, align 8, !tbaa !41
  store ptr %89, ptr %5, align 8, !tbaa !22
  %90 = load ptr, ptr %3, align 8, !tbaa !22
  %91 = getelementptr inbounds nuw %struct.H5P_genclass_t, ptr %90, i32 0, i32 1
  %92 = load ptr, ptr %91, align 8, !tbaa !44
  %93 = call ptr @H5MM_xfree(ptr noundef %92)
  %94 = load ptr, ptr %3, align 8, !tbaa !22
  %95 = getelementptr inbounds nuw %struct.H5P_genclass_t, ptr %94, i32 0, i32 9
  %96 = load ptr, ptr %95, align 8, !tbaa !52
  %97 = icmp ne ptr %96, null
  br i1 %97, label %98, label %103

98:                                               ; preds = %86
  call void @llvm.lifetime.start.p0(i64 1, ptr %6) #8
  store i8 0, ptr %6, align 1, !tbaa !7
  %99 = load ptr, ptr %3, align 8, !tbaa !22
  %100 = getelementptr inbounds nuw %struct.H5P_genclass_t, ptr %99, i32 0, i32 9
  %101 = load ptr, ptr %100, align 8, !tbaa !52
  %102 = call i32 @H5SL_destroy(ptr noundef %101, ptr noundef @H5P__free_prop_cb, ptr noundef %6)
  call void @llvm.lifetime.end.p0(i64 1, ptr %6) #8
  br label %103

103:                                              ; preds = %98, %86
  %104 = load ptr, ptr %3, align 8, !tbaa !22
  %105 = call ptr @H5FL_reg_free(ptr noundef @H5_H5P_genclass_t_reg_free_list, ptr noundef %104)
  store ptr %105, ptr %3, align 8, !tbaa !22
  %106 = load ptr, ptr %5, align 8, !tbaa !22
  %107 = icmp ne ptr %106, null
  br i1 %107, label %108, label %111

108:                                              ; preds = %103
  %109 = load ptr, ptr %5, align 8, !tbaa !22
  %110 = call i32 @H5P__access_class(ptr noundef %109, i32 noundef 1)
  br label %111

111:                                              ; preds = %108, %103
  call void @llvm.lifetime.end.p0(i64 8, ptr %5) #8
  br label %112

112:                                              ; preds = %111, %81, %76, %71
  br label %113

113:                                              ; preds = %112, %13
  ret i32 0
}