; Function Attrs: nounwind uwtable
define noundef i32 @H5P__access_class(ptr noundef %0, i32 noundef %1) local_unnamed_addr #0 {
  %3 = alloca i8, align 1
  %4 = load i8, ptr @H5P_init_g, align 1, !tbaa !3, !range !7, !noundef !8
  %5 = trunc nuw i8 %4 to i1
  %6 = load i8, ptr @H5_libterm_g, align 1, !range !7
  %7 = trunc nuw i8 %6 to i1
  %8 = xor i1 %7, true
  %9 = select i1 %5, i1 true, i1 %8
  br i1 %9, label %10, label %68, !prof !9

10:                                               ; preds = %2
  switch i32 %1, label %43 [
    i32 0, label %11
    i32 1, label %15
    i32 2, label %19
    i32 3, label %23
    i32 4, label %27
    i32 5, label %36
  ]

11:                                               ; preds = %10
  %12 = getelementptr inbounds nuw i8, ptr %0, i64 36
  %13 = load i32, ptr %12, align 4, !tbaa !79
  %14 = add i32 %13, 1
  store i32 %14, ptr %12, align 4, !tbaa !79
  br label %43

15:                                               ; preds = %10
  %16 = getelementptr inbounds nuw i8, ptr %0, i64 36
  %17 = load i32, ptr %16, align 4, !tbaa !79
  %18 = add i32 %17, -1
  store i32 %18, ptr %16, align 4, !tbaa !79
  br label %43

19:                                               ; preds = %10
  %20 = getelementptr inbounds nuw i8, ptr %0, i64 32
  %21 = load i32, ptr %20, align 8, !tbaa !80
  %22 = add i32 %21, 1
  store i32 %22, ptr %20, align 8, !tbaa !80
  br label %43

23:                                               ; preds = %10
  %24 = getelementptr inbounds nuw i8, ptr %0, i64 32
  %25 = load i32, ptr %24, align 8, !tbaa !80
  %26 = add i32 %25, -1
  store i32 %26, ptr %24, align 8, !tbaa !80
  br label %43

27:                                               ; preds = %10
  %28 = getelementptr inbounds nuw i8, ptr %0, i64 44
  %29 = load i8, ptr %28, align 4, !tbaa !44, !range !7, !noundef !8
  %30 = trunc nuw i8 %29 to i1
  br i1 %30, label %31, label %32

31:                                               ; preds = %27
  store i8 0, ptr %28, align 4, !tbaa !44
  br label %32

32:                                               ; preds = %31, %27
  %33 = getelementptr inbounds nuw i8, ptr %0, i64 40
  %34 = load i32, ptr %33, align 8, !tbaa !43
  %35 = add i32 %34, 1
  store i32 %35, ptr %33, align 8, !tbaa !43
  br label %43

36:                                               ; preds = %10
  %37 = getelementptr inbounds nuw i8, ptr %0, i64 40
  %38 = load i32, ptr %37, align 8, !tbaa !43
  %39 = add i32 %38, -1
  store i32 %39, ptr %37, align 8, !tbaa !43
  %40 = icmp eq i32 %39, 0
  br i1 %40, label %41, label %43

41:                                               ; preds = %36
  %42 = getelementptr inbounds nuw i8, ptr %0, i64 44
  store i8 1, ptr %42, align 4, !tbaa !44
  br label %43

43:                                               ; preds = %10, %36, %41, %32, %23, %19, %15, %11
  %44 = getelementptr inbounds nuw i8, ptr %0, i64 44
  %45 = load i8, ptr %44, align 4, !tbaa !44, !range !7, !noundef !8
  %46 = trunc nuw i8 %45 to i1
  br i1 %46, label %47, label %68

47:                                               ; preds = %43
  %48 = getelementptr inbounds nuw i8, ptr %0, i64 32
  %49 = load i32, ptr %48, align 8, !tbaa !80
  %50 = icmp eq i32 %49, 0
  br i1 %50, label %51, label %68

51:                                               ; preds = %47
  %52 = getelementptr inbounds nuw i8, ptr %0, i64 36
  %53 = load i32, ptr %52, align 4, !tbaa !79
  %54 = icmp eq i32 %53, 0
  br i1 %54, label %55, label %68

55:                                               ; preds = %51
  %56 = load ptr, ptr %0, align 8, !tbaa !38
  %57 = getelementptr inbounds nuw i8, ptr %0, i64 8
  %58 = load ptr, ptr %57, align 8, !tbaa !41
  %59 = tail call ptr @H5MM_xfree(ptr noundef %58) #14
  %60 = getelementptr inbounds nuw i8, ptr %0, i64 56
  %61 = load ptr, ptr %60, align 8, !tbaa !47
  %.not = icmp eq ptr %61, null
  br i1 %.not, label %64, label %62

62:                                               ; preds = %55
  call void @llvm.lifetime.start.p0(i64 1, ptr nonnull %3) #14
  store i8 0, ptr %3, align 1, !tbaa !3
  %63 = call i32 @H5SL_destroy(ptr noundef nonnull %61, ptr noundef nonnull @H5P__free_prop_cb, ptr noundef nonnull %3) #14
  call void @llvm.lifetime.end.p0(i64 1, ptr nonnull %3) #14
  br label %64

64:                                               ; preds = %62, %55
  %65 = call ptr @H5FL_reg_free(ptr noundef nonnull @H5_H5P_genclass_t_reg_free_list, ptr noundef nonnull %0) #14
  %.not20 = icmp eq ptr %56, null
  br i1 %.not20, label %68, label %66

66:                                               ; preds = %64
  %67 = call i32 @H5P__access_class(ptr noundef nonnull %56, i32 noundef 1)
  br label %68

68:                                               ; preds = %64, %66, %43, %47, %51, %2
  ret i32 0
}